; Function Attrs: null_pointer_is_valid sspstrong uwtable
define internal void @dissect_r3_cmdmfg_terminal(ptr noundef %0, i32 noundef %1, i32 %2, ptr readnone captures(none) %3, ptr noundef %4) #0 {
  %.not = icmp eq ptr %4, null
  br i1 %.not, label %12, label %6

6:                                                ; preds = %5
  %7 = load i32, ptr @hf_r3_commandmfglength, align 4
  %8 = tail call ptr @proto_tree_add_item(ptr noundef nonnull %4, i32 noundef %7, ptr noundef %0, i32 noundef %1, i32 noundef 1, i32 noundef -2147483648)
  %9 = load i32, ptr @hf_r3_commandmfg, align 4
  %10 = add i32 %1, 1
  %11 = tail call ptr @proto_tree_add_item(ptr noundef nonnull %4, i32 noundef %9, ptr noundef %0, i32 noundef %10, i32 noundef 1, i32 noundef -2147483648)
  br label %12

12:                                               ; preds = %6, %5
  ret void
}